target datalayout = "e-m:e-p270:32:32-p271:32:32-p272:64:64-i64:64-i128:128-f80:128-n8:16:32:64-S128"
target triple = "x86_64-pc-linux-gnu"

%class.HashtableTextDump = type { i32, ptr, ptr, ptr, ptr, i64, i32, i32 }

; Function Attrs: mustprogress nounwind uwtable
define hidden void @_ZN17HashtableTextDumpD2Ev(ptr noundef nonnull align 8 dereferenceable(56) %0) unnamed_addr #1 align 2 {
  %2 = alloca ptr, align 8
  store ptr %0, ptr %2, align 8
  %3 = load ptr, ptr %2, align 8
  %4 = getelementptr inbounds %class.HashtableTextDump, ptr %3, i32 0, i32 1
  %5 = load ptr, ptr %4, align 8
  %6 = getelementptr inbounds %class.HashtableTextDump, ptr %3, i32 0, i32 5
  %7 = load i64, ptr %6, align 8
  %8 = call noundef zeroext i1 @_ZN2os12unmap_memoryEPcm(ptr noundef %5, i64 noundef %7)
  %9 = getelementptr inbounds %class.HashtableTextDump, ptr %3, i32 0, i32 0
  %10 = load i32, ptr %9, align 8
  %11 = icmp sge i32 %10, 0
  br i1 %11, label %12, label %16

12:                                               ; preds = %1
  %13 = getelementptr inbounds %class.HashtableTextDump, ptr %3, i32 0, i32 0
  %14 = load i32, ptr %13, align 8
  %15 = call i32 @close(i32 noundef %14)
  br label %16

16:                                               ; preds = %12, %1
  ret void
}