; Function Attrs: mustprogress nounwind uwtable
define hidden void @_ZN17HashtableTextDumpD2Ev(ptr nocapture noundef nonnull readonly align 8 dereferenceable(56) %0) unnamed_addr #0 align 2 {
  %2 = getelementptr inbounds i8, ptr %0, i64 8
  %3 = load ptr, ptr %2, align 8
  %4 = getelementptr inbounds i8, ptr %0, i64 40
  %5 = load i64, ptr %4, align 8
  %6 = tail call noundef zeroext i1 @_ZN2os12unmap_memoryEPcm(ptr noundef %3, i64 noundef %5) #14
  %7 = load i32, ptr %0, align 8
  %8 = icmp sgt i32 %7, -1
  br i1 %8, label %9, label %11

9:                                                ; preds = %1
  %10 = tail call i32 @close(i32 noundef %7) #14
  br label %11

11:                                               ; preds = %9, %1
  ret void
}